target datalayout = "e-m:e-p270:32:32-p271:32:32-p272:64:64-i64:64-i128:128-f80:128-n8:16:32:64-S128"
target triple = "x86_64-unknown-linux-gnu"

%"class.std::__cxx11::basic_string" = type { %"struct.std::__cxx11::basic_string<char>::_Alloc_hider", i64, %union.anon }
%"struct.std::__cxx11::basic_string<char>::_Alloc_hider" = type { ptr }
%union.anon = type { i64, [8 x i8] }
%"struct.rocksdb::BackupEngineOptions" = type <{ %"class.std::__cxx11::basic_string", ptr, i8, [7 x i8], ptr, i8, i8, i8, [5 x i8], i64, %"class.std::shared_ptr", i64, %"class.std::shared_ptr", i8, [3 x i8], i32, i64, i32, i32, i32, i8, [3 x i8] }>
%"class.std::shared_ptr" = type { %"class.std::__shared_ptr" }
%"class.std::__shared_ptr" = type { ptr, %"class.std::__shared_count" }
%"class.std::__shared_count" = type { ptr }

@.str.14 = private unnamed_addr constant [47 x i8] c"[%s:110]                Options.backup_dir: %s\00", align 1
@.str.15 = private unnamed_addr constant [127 x i8] c"generated/home/dtcxzyw/WorkSpace/Projects/compilers/llvm-opt-benchmark/bench/rocksdb/rocksdb/utilities/backup/backup_engine.cc\00", align 1
@.str.16 = private unnamed_addr constant [47 x i8] c"[%s:111]                Options.backup_env: %p\00", align 1
@.str.17 = private unnamed_addr constant [47 x i8] c"[%s:113]         Options.share_table_files: %d\00", align 1
@.str.18 = private unnamed_addr constant [47 x i8] c"[%s:114]                  Options.info_log: %p\00", align 1
@.str.19 = private unnamed_addr constant [47 x i8] c"[%s:116]                      Options.sync: %d\00", align 1
@.str.20 = private unnamed_addr constant [47 x i8] c"[%s:118]          Options.destroy_old_data: %d\00", align 1
@.str.21 = private unnamed_addr constant [47 x i8] c"[%s:120]          Options.backup_log_files: %d\00", align 1
@.str.22 = private unnamed_addr constant [48 x i8] c"[%s:122]         Options.backup_rate_limit: %lu\00", align 1
@.str.23 = private unnamed_addr constant [48 x i8] c"[%s:124]        Options.restore_rate_limit: %lu\00", align 1
@.str.24 = private unnamed_addr constant [47 x i8] c"[%s:126] Options.max_background_operations: %d\00", align 1

; Function Attrs: mustprogress nounwind uwtable
define linkonce_odr noundef ptr @_Z23RocksLogShorterFileNamePKc(ptr noundef %file) #1 comdat {
entry:
  %file.addr = alloca ptr, align 8
  store ptr %file, ptr %file.addr, align 8
  %0 = load ptr, ptr %file.addr, align 8
  %add.ptr = getelementptr inbounds i8, ptr %0, i64 93
  ret ptr %add.ptr
}

; Function Attrs: mustprogress uwtable
define void @_ZNK7rocksdb19BackupEngineOptions4DumpEPNS_6LoggerE(ptr noundef nonnull align 8 dereferenceable(141) %this, ptr noundef %logger) #0 align 2 {
entry:
  %this.addr = alloca ptr, align 8
  %logger.addr = alloca ptr, align 8
  store ptr %this, ptr %this.addr, align 8
  store ptr %logger, ptr %logger.addr, align 8
  %this1 = load ptr, ptr %this.addr, align 8
  %0 = load ptr, ptr %logger.addr, align 8
  %call = call noundef ptr @_Z23RocksLogShorterFileNamePKc(ptr noundef @.str.15)
  %backup_dir = getelementptr inbounds %"struct.rocksdb::BackupEngineOptions", ptr %this1, i32 0, i32 0
  %call2 = call noundef ptr @_ZNKSt7__cxx1112basic_stringIcSt11char_traitsIcESaIcEE5c_strEv(ptr noundef nonnull align 8 dereferenceable(32) %backup_dir) #3
  call void (i8, ptr, ptr, ...) @_ZN7rocksdb3LogENS_12InfoLogLevelEPNS_6LoggerEPKcz(i8 noundef zeroext 1, ptr noundef %0, ptr noundef @.str.14, ptr noundef %call, ptr noundef %call2)
  %1 = load ptr, ptr %logger.addr, align 8
  %call3 = call noundef ptr @_Z23RocksLogShorterFileNamePKc(ptr noundef @.str.15)
  %backup_env = getelementptr inbounds %"struct.rocksdb::BackupEngineOptions", ptr %this1, i32 0, i32 1
  %2 = load ptr, ptr %backup_env, align 8
  call void (i8, ptr, ptr, ...) @_ZN7rocksdb3LogENS_12InfoLogLevelEPNS_6LoggerEPKcz(i8 noundef zeroext 1, ptr noundef %1, ptr noundef @.str.16, ptr noundef %call3, ptr noundef %2)
  %3 = load ptr, ptr %logger.addr, align 8
  %call4 = call noundef ptr @_Z23RocksLogShorterFileNamePKc(ptr noundef @.str.15)
  %share_table_files = getelementptr inbounds %"struct.rocksdb::BackupEngineOptions", ptr %this1, i32 0, i32 2
  %4 = load i8, ptr %share_table_files, align 8
  %tobool = trunc i8 %4 to i1
  %conv = zext i1 %tobool to i32
  call void (i8, ptr, ptr, ...) @_ZN7rocksdb3LogENS_12InfoLogLevelEPNS_6LoggerEPKcz(i8 noundef zeroext 1, ptr noundef %3, ptr noundef @.str.17, ptr noundef %call4, i32 noundef %conv)
  %5 = load ptr, ptr %logger.addr, align 8
  %call5 = call noundef ptr @_Z23RocksLogShorterFileNamePKc(ptr noundef @.str.15)
  %info_log = getelementptr inbounds %"struct.rocksdb::BackupEngineOptions", ptr %this1, i32 0, i32 4
  %6 = load ptr, ptr %info_log, align 8
  call void (i8, ptr, ptr, ...) @_ZN7rocksdb3LogENS_12InfoLogLevelEPNS_6LoggerEPKcz(i8 noundef zeroext 1, ptr noundef %5, ptr noundef @.str.18, ptr noundef %call5, ptr noundef %6)
  %7 = load ptr, ptr %logger.addr, align 8
  %call6 = call noundef ptr @_Z23RocksLogShorterFileNamePKc(ptr noundef @.str.15)
  %sync = getelementptr inbounds %"struct.rocksdb::BackupEngineOptions", ptr %this1, i32 0, i32 5
  %8 = load i8, ptr %sync, align 8
  %tobool7 = trunc i8 %8 to i1
  %conv8 = zext i1 %tobool7 to i32
  call void (i8, ptr, ptr, ...) @_ZN7rocksdb3LogENS_12InfoLogLevelEPNS_6LoggerEPKcz(i8 noundef zeroext 1, ptr noundef %7, ptr noundef @.str.19, ptr noundef %call6, i32 noundef %conv8)
  %9 = load ptr, ptr %logger.addr, align 8
  %call9 = call noundef ptr @_Z23RocksLogShorterFileNamePKc(ptr noundef @.str.15)
  %destroy_old_data = getelementptr inbounds %"struct.rocksdb::BackupEngineOptions", ptr %this1, i32 0, i32 6
  %10 = load i8, ptr %destroy_old_data, align 1
  %tobool10 = trunc i8 %10 to i1
  %conv11 = zext i1 %tobool10 to i32
  call void (i8, ptr, ptr, ...) @_ZN7rocksdb3LogENS_12InfoLogLevelEPNS_6LoggerEPKcz(i8 noundef zeroext 1, ptr noundef %9, ptr noundef @.str.20, ptr noundef %call9, i32 noundef %conv11)
  %11 = load ptr, ptr %logger.addr, align 8
  %call12 = call noundef ptr @_Z23RocksLogShorterFileNamePKc(ptr noundef @.str.15)
  %backup_log_files = getelementptr inbounds %"struct.rocksdb::BackupEngineOptions", ptr %this1, i32 0, i32 7
  %12 = load i8, ptr %backup_log_files, align 2
  %tobool13 = trunc i8 %12 to i1
  %conv14 = zext i1 %tobool13 to i32
  call void (i8, ptr, ptr, ...) @_ZN7rocksdb3LogENS_12InfoLogLevelEPNS_6LoggerEPKcz(i8 noundef zeroext 1, ptr noundef %11, ptr noundef @.str.21, ptr noundef %call12, i32 noundef %conv14)
  %13 = load ptr, ptr %logger.addr, align 8
  %call15 = call noundef ptr @_Z23RocksLogShorterFileNamePKc(ptr noundef @.str.15)
  %backup_rate_limit = getelementptr inbounds %"struct.rocksdb::BackupEngineOptions", ptr %this1, i32 0, i32 9
  %14 = load i64, ptr %backup_rate_limit, align 8
  call void (i8, ptr, ptr, ...) @_ZN7rocksdb3LogENS_12InfoLogLevelEPNS_6LoggerEPKcz(i8 noundef zeroext 1, ptr noundef %13, ptr noundef @.str.22, ptr noundef %call15, i64 noundef %14)
  %15 = load ptr, ptr %logger.addr, align 8
  %call16 = call noundef ptr @_Z23RocksLogShorterFileNamePKc(ptr noundef @.str.15)
  %restore_rate_limit = getelementptr inbounds %"struct.rocksdb::BackupEngineOptions", ptr %this1, i32 0, i32 11
  %16 = load i64, ptr %restore_rate_limit, align 8
  call void (i8, ptr, ptr, ...) @_ZN7rocksdb3LogENS_12InfoLogLevelEPNS_6LoggerEPKcz(i8 noundef zeroext 1, ptr noundef %15, ptr noundef @.str.23, ptr noundef %call16, i64 noundef %16)
  %17 = load ptr, ptr %logger.addr, align 8
  %call17 = call noundef ptr @_Z23RocksLogShorterFileNamePKc(ptr noundef @.str.15)
  %max_background_operations = getelementptr inbounds %"struct.rocksdb::BackupEngineOptions", ptr %this1, i32 0, i32 15
  %18 = load i32, ptr %max_background_operations, align 4
  call void (i8, ptr, ptr, ...) @_ZN7rocksdb3LogENS_12InfoLogLevelEPNS_6LoggerEPKcz(i8 noundef zeroext 1, ptr noundef %17, ptr noundef @.str.24, ptr noundef %call17, i32 noundef %18)
  ret void
}