; Function Attrs: mustprogress uwtable
define void @_ZNK7rocksdb19BackupEngineOptions4DumpEPNS_6LoggerE(ptr noundef nonnull align 8 dereferenceable(141) %this, ptr noundef %logger) local_unnamed_addr #3 align 2 {
entry:
  %call2 = tail call noundef ptr @_ZNKSt7__cxx1112basic_stringIcSt11char_traitsIcESaIcEE5c_strEv(ptr noundef nonnull align 8 dereferenceable(32) %this) #33
  tail call void (i8, ptr, ptr, ...) @_ZN7rocksdb3LogENS_12InfoLogLevelEPNS_6LoggerEPKcz(i8 noundef zeroext 1, ptr noundef %logger, ptr noundef nonnull @.str.14, ptr noundef nonnull getelementptr inbounds ([127 x i8], ptr @.str.15, i64 0, i64 93), ptr noundef %call2)
  %backup_env = getelementptr inbounds i8, ptr %this, i64 32
  %0 = load ptr, ptr %backup_env, align 8
  tail call void (i8, ptr, ptr, ...) @_ZN7rocksdb3LogENS_12InfoLogLevelEPNS_6LoggerEPKcz(i8 noundef zeroext 1, ptr noundef %logger, ptr noundef nonnull @.str.16, ptr noundef nonnull getelementptr inbounds ([127 x i8], ptr @.str.15, i64 0, i64 93), ptr noundef %0)
  %share_table_files = getelementptr inbounds i8, ptr %this, i64 40
  %1 = load i8, ptr %share_table_files, align 8
  %2 = and i8 %1, 1
  %conv = zext nneg i8 %2 to i32
  tail call void (i8, ptr, ptr, ...) @_ZN7rocksdb3LogENS_12InfoLogLevelEPNS_6LoggerEPKcz(i8 noundef zeroext 1, ptr noundef %logger, ptr noundef nonnull @.str.17, ptr noundef nonnull getelementptr inbounds ([127 x i8], ptr @.str.15, i64 0, i64 93), i32 noundef %conv)
  %info_log = getelementptr inbounds i8, ptr %this, i64 48
  %3 = load ptr, ptr %info_log, align 8
  tail call void (i8, ptr, ptr, ...) @_ZN7rocksdb3LogENS_12InfoLogLevelEPNS_6LoggerEPKcz(i8 noundef zeroext 1, ptr noundef %logger, ptr noundef nonnull @.str.18, ptr noundef nonnull getelementptr inbounds ([127 x i8], ptr @.str.15, i64 0, i64 93), ptr noundef %3)
  %sync = getelementptr inbounds i8, ptr %this, i64 56
  %4 = load i8, ptr %sync, align 8
  %5 = and i8 %4, 1
  %conv8 = zext nneg i8 %5 to i32
  tail call void (i8, ptr, ptr, ...) @_ZN7rocksdb3LogENS_12InfoLogLevelEPNS_6LoggerEPKcz(i8 noundef zeroext 1, ptr noundef %logger, ptr noundef nonnull @.str.19, ptr noundef nonnull getelementptr inbounds ([127 x i8], ptr @.str.15, i64 0, i64 93), i32 noundef %conv8)
  %destroy_old_data = getelementptr inbounds i8, ptr %this, i64 57
  %6 = load i8, ptr %destroy_old_data, align 1
  %7 = and i8 %6, 1
  %conv11 = zext nneg i8 %7 to i32
  tail call void (i8, ptr, ptr, ...) @_ZN7rocksdb3LogENS_12InfoLogLevelEPNS_6LoggerEPKcz(i8 noundef zeroext 1, ptr noundef %logger, ptr noundef nonnull @.str.20, ptr noundef nonnull getelementptr inbounds ([127 x i8], ptr @.str.15, i64 0, i64 93), i32 noundef %conv11)
  %backup_log_files = getelementptr inbounds i8, ptr %this, i64 58
  %8 = load i8, ptr %backup_log_files, align 2
  %9 = and i8 %8, 1
  %conv14 = zext nneg i8 %9 to i32
  tail call void (i8, ptr, ptr, ...) @_ZN7rocksdb3LogENS_12InfoLogLevelEPNS_6LoggerEPKcz(i8 noundef zeroext 1, ptr noundef %logger, ptr noundef nonnull @.str.21, ptr noundef nonnull getelementptr inbounds ([127 x i8], ptr @.str.15, i64 0, i64 93), i32 noundef %conv14)
  %backup_rate_limit = getelementptr inbounds i8, ptr %this, i64 64
  %10 = load i64, ptr %backup_rate_limit, align 8
  tail call void (i8, ptr, ptr, ...) @_ZN7rocksdb3LogENS_12InfoLogLevelEPNS_6LoggerEPKcz(i8 noundef zeroext 1, ptr noundef %logger, ptr noundef nonnull @.str.22, ptr noundef nonnull getelementptr inbounds ([127 x i8], ptr @.str.15, i64 0, i64 93), i64 noundef %10)
  %restore_rate_limit = getelementptr inbounds i8, ptr %this, i64 88
  %11 = load i64, ptr %restore_rate_limit, align 8
  tail call void (i8, ptr, ptr, ...) @_ZN7rocksdb3LogENS_12InfoLogLevelEPNS_6LoggerEPKcz(i8 noundef zeroext 1, ptr noundef %logger, ptr noundef nonnull @.str.23, ptr noundef nonnull getelementptr inbounds ([127 x i8], ptr @.str.15, i64 0, i64 93), i64 noundef %11)
  %max_background_operations = getelementptr inbounds i8, ptr %this, i64 116
  %12 = load i32, ptr %max_background_operations, align 4
  tail call void (i8, ptr, ptr, ...) @_ZN7rocksdb3LogENS_12InfoLogLevelEPNS_6LoggerEPKcz(i8 noundef zeroext 1, ptr noundef %logger, ptr noundef nonnull @.str.24, ptr noundef nonnull getelementptr inbounds ([127 x i8], ptr @.str.15, i64 0, i64 93), i32 noundef %12)
  ret void
}